target datalayout = "e-m:e-p270:32:32-p271:32:32-p272:64:64-i64:64-i128:128-f80:128-n8:16:32:64-S128"
target triple = "x86_64-pc-linux-gnu"

%struct.PJconsts = type { ptr, ptr, ptr, ptr, ptr, ptr, ptr, ptr, ptr, ptr, ptr, ptr, i32, ptr, ptr, ptr, ptr, ptr, ptr, ptr, ptr, double, double, double, double, double, double, double, double, double, double, double, double, double, double, double, double, double, double, double, double, double, double, i32, i32, i32, i32, i32, i32, i32, i32, i32, i32, i32, ptr, ptr, ptr, ptr, ptr, ptr, double, double, double, double, double, double, double, double, double, double, double, i32, [7 x double], i32, ptr, ptr, double, double, i32, [4 x i8], %"class.std::shared_ptr", i8, double, i8, %"class.std::__cxx11::basic_string", %"class.std::__cxx11::basic_string", %"class.std::__cxx11::basic_string", i8, %"class.std::vector", i32, %"class.std::vector.3", i32, i8, i8, i8, ptr }
%"class.std::shared_ptr" = type { %"class.std::__shared_ptr" }
%"class.std::__shared_ptr" = type { ptr, %"class.std::__shared_count" }
%"class.std::__shared_count" = type { ptr }
%"class.std::__cxx11::basic_string" = type { %"struct.std::__cxx11::basic_string<char>::_Alloc_hider", i64, %union.anon }
%"struct.std::__cxx11::basic_string<char>::_Alloc_hider" = type { ptr }
%union.anon = type { i64, [8 x i8] }
%"class.std::vector" = type { %"struct.std::_Vector_base" }
%"struct.std::_Vector_base" = type { %"struct.std::_Vector_base<osgeo::proj::operation::GridDescription, std::allocator<osgeo::proj::operation::GridDescription>>::_Vector_impl" }
%"struct.std::_Vector_base<osgeo::proj::operation::GridDescription, std::allocator<osgeo::proj::operation::GridDescription>>::_Vector_impl" = type { %"struct.std::_Vector_base<osgeo::proj::operation::GridDescription, std::allocator<osgeo::proj::operation::GridDescription>>::_Vector_impl_data" }
%"struct.std::_Vector_base<osgeo::proj::operation::GridDescription, std::allocator<osgeo::proj::operation::GridDescription>>::_Vector_impl_data" = type { ptr, ptr, ptr }
%"class.std::vector.3" = type { %"struct.std::_Vector_base.4" }
%"struct.std::_Vector_base.4" = type { %"struct.std::_Vector_base<PJCoordOperation, std::allocator<PJCoordOperation>>::_Vector_impl" }
%"struct.std::_Vector_base<PJCoordOperation, std::allocator<PJCoordOperation>>::_Vector_impl" = type { %"struct.std::_Vector_base<PJCoordOperation, std::allocator<PJCoordOperation>>::_Vector_impl_data" }
%"struct.std::_Vector_base<PJCoordOperation, std::allocator<PJCoordOperation>>::_Vector_impl_data" = type { ptr, ptr, ptr }
%"struct.(anonymous namespace)::pj_ocea" = type { double, double, double, double }
%struct.PJ_LP = type { double, double }
%struct.PJ_XY = type { double, double }

; Function Attrs: mustprogress nounwind uwtable
define internal { double, double } @_ZL14ocea_s_forward5PJ_LPP8PJconsts(double %0, double %1, ptr noundef %2) #6 {
  %4 = alloca %struct.PJ_XY, align 8
  %5 = alloca %struct.PJ_LP, align 8
  %6 = alloca ptr, align 8
  %7 = alloca ptr, align 8
  %8 = alloca double, align 8
  %9 = getelementptr inbounds nuw { double, double }, ptr %5, i32 0, i32 0
  store double %0, ptr %9, align 8
  %10 = getelementptr inbounds nuw { double, double }, ptr %5, i32 0, i32 1
  store double %1, ptr %10, align 8
  store ptr %2, ptr %6, align 8, !tbaa !3
  call void @llvm.memset.p0.i64(ptr align 8 %4, i8 0, i64 16, i1 false)
  call void @llvm.lifetime.start.p0(i64 8, ptr %7) #8
  %11 = load ptr, ptr %6, align 8, !tbaa !3
  %12 = getelementptr inbounds nuw %struct.PJconsts, ptr %11, i32 0, i32 11
  %13 = load ptr, ptr %12, align 8, !tbaa !43
  store ptr %13, ptr %7, align 8, !tbaa !41
  call void @llvm.lifetime.start.p0(i64 8, ptr %8) #8
  %14 = getelementptr inbounds nuw %struct.PJ_LP, ptr %5, i32 0, i32 0
  %15 = load double, ptr %14, align 8, !tbaa !65
  %16 = call double @sin(double noundef %15) #8, !tbaa !52
  %17 = getelementptr inbounds nuw %struct.PJ_XY, ptr %4, i32 0, i32 1
  store double %16, ptr %17, align 8, !tbaa !60
  %18 = getelementptr inbounds nuw %struct.PJ_LP, ptr %5, i32 0, i32 0
  %19 = load double, ptr %18, align 8, !tbaa !65
  %20 = call double @cos(double noundef %19) #8, !tbaa !52
  store double %20, ptr %8, align 8, !tbaa !51
  %21 = getelementptr inbounds nuw %struct.PJ_LP, ptr %5, i32 0, i32 1
  %22 = load double, ptr %21, align 8, !tbaa !63
  %23 = call double @tan(double noundef %22) #8, !tbaa !52
  %24 = load ptr, ptr %7, align 8, !tbaa !41
  %25 = getelementptr inbounds nuw %"struct.(anonymous namespace)::pj_ocea", ptr %24, i32 0, i32 3
  %26 = load double, ptr %25, align 8, !tbaa !55
  %27 = load ptr, ptr %7, align 8, !tbaa !41
  %28 = getelementptr inbounds nuw %"struct.(anonymous namespace)::pj_ocea", ptr %27, i32 0, i32 2
  %29 = load double, ptr %28, align 8, !tbaa !56
  %30 = getelementptr inbounds nuw %struct.PJ_XY, ptr %4, i32 0, i32 1
  %31 = load double, ptr %30, align 8, !tbaa !60
  %32 = fmul double %29, %31
  %33 = call double @llvm.fmuladd.f64(double %23, double %26, double %32)
  %34 = load double, ptr %8, align 8, !tbaa !51
  %35 = fdiv double %33, %34
  %36 = call double @atan(double noundef %35) #8, !tbaa !52
  %37 = getelementptr inbounds nuw %struct.PJ_XY, ptr %4, i32 0, i32 0
  store double %36, ptr %37, align 8, !tbaa !62
  %38 = load double, ptr %8, align 8, !tbaa !51
  %39 = fcmp olt double %38, 0.000000e+00
  br i1 %39, label %40, label %44

40:                                               ; preds = %3
  %41 = getelementptr inbounds nuw %struct.PJ_XY, ptr %4, i32 0, i32 0
  %42 = load double, ptr %41, align 8, !tbaa !62
  %43 = fadd double %42, 0x400921FB54442D18
  store double %43, ptr %41, align 8, !tbaa !62
  br label %44

44:                                               ; preds = %40, %3
  %45 = load ptr, ptr %7, align 8, !tbaa !41
  %46 = getelementptr inbounds nuw %"struct.(anonymous namespace)::pj_ocea", ptr %45, i32 0, i32 1
  %47 = load double, ptr %46, align 8, !tbaa !47
  %48 = getelementptr inbounds nuw %struct.PJ_XY, ptr %4, i32 0, i32 0
  %49 = load double, ptr %48, align 8, !tbaa !62
  %50 = fmul double %49, %47
  store double %50, ptr %48, align 8, !tbaa !62
  %51 = load ptr, ptr %7, align 8, !tbaa !41
  %52 = getelementptr inbounds nuw %"struct.(anonymous namespace)::pj_ocea", ptr %51, i32 0, i32 0
  %53 = load double, ptr %52, align 8, !tbaa !45
  %54 = load ptr, ptr %7, align 8, !tbaa !41
  %55 = getelementptr inbounds nuw %"struct.(anonymous namespace)::pj_ocea", ptr %54, i32 0, i32 2
  %56 = load double, ptr %55, align 8, !tbaa !56
  %57 = getelementptr inbounds nuw %struct.PJ_LP, ptr %5, i32 0, i32 1
  %58 = load double, ptr %57, align 8, !tbaa !63
  %59 = call double @sin(double noundef %58) #8, !tbaa !52
  %60 = load ptr, ptr %7, align 8, !tbaa !41
  %61 = getelementptr inbounds nuw %"struct.(anonymous namespace)::pj_ocea", ptr %60, i32 0, i32 3
  %62 = load double, ptr %61, align 8, !tbaa !55
  %63 = getelementptr inbounds nuw %struct.PJ_LP, ptr %5, i32 0, i32 1
  %64 = load double, ptr %63, align 8, !tbaa !63
  %65 = call double @cos(double noundef %64) #8, !tbaa !52
  %66 = fmul double %62, %65
  %67 = getelementptr inbounds nuw %struct.PJ_XY, ptr %4, i32 0, i32 1
  %68 = load double, ptr %67, align 8, !tbaa !60
  %69 = fmul double %66, %68
  %70 = fneg double %69
  %71 = call double @llvm.fmuladd.f64(double %56, double %59, double %70)
  %72 = fmul double %53, %71
  %73 = getelementptr inbounds nuw %struct.PJ_XY, ptr %4, i32 0, i32 1
  store double %72, ptr %73, align 8, !tbaa !60
  call void @llvm.lifetime.end.p0(i64 8, ptr %8) #8
  call void @llvm.lifetime.end.p0(i64 8, ptr %7) #8
  %74 = load { double, double }, ptr %4, align 8
  ret { double, double } %74
}