; Function Attrs: mustprogress nofree nounwind willreturn memory(readwrite, inaccessiblemem: write) uwtable
define internal { double, double } @_ZL14ocea_s_forward5PJ_LPP8PJconsts(double %0, double %1, ptr noundef readonly captures(none) %2) #5 {
  %4 = getelementptr inbounds nuw i8, ptr %2, i64 88
  %5 = load ptr, ptr %4, align 8, !tbaa !40
  %6 = tail call double @sin(double noundef %0) #7, !tbaa !47
  %7 = tail call double @cos(double noundef %0) #7, !tbaa !47
  %8 = tail call double @tan(double noundef %1) #7, !tbaa !47
  %9 = getelementptr inbounds nuw i8, ptr %5, i64 24
  %10 = load double, ptr %9, align 8, !tbaa !50
  %11 = getelementptr inbounds nuw i8, ptr %5, i64 16
  %12 = load double, ptr %11, align 8, !tbaa !51
  %13 = fmul double %6, %12
  %14 = tail call double @llvm.fmuladd.f64(double %8, double %10, double %13)
  %15 = fdiv double %14, %7
  %16 = tail call double @atan(double noundef %15) #7, !tbaa !47
  %17 = fcmp olt double %7, 0.000000e+00
  %18 = fadd double %16, 0x400921FB54442D18
  %.sroa.012.0 = select i1 %17, double %18, double %16
  %19 = getelementptr inbounds nuw i8, ptr %5, i64 8
  %20 = load double, ptr %19, align 8, !tbaa !44
  %21 = fmul double %20, %.sroa.012.0
  %22 = load double, ptr %5, align 8, !tbaa !42
  %23 = tail call double @sin(double noundef %1) #7, !tbaa !47
  %24 = tail call double @cos(double noundef %1) #7, !tbaa !47
  %25 = fmul double %10, %24
  %26 = fneg double %6
  %27 = fmul double %25, %26
  %28 = tail call double @llvm.fmuladd.f64(double %12, double %23, double %27)
  %29 = fmul double %22, %28
  %.fca.0.insert = insertvalue { double, double } poison, double %21, 0
  %.fca.1.insert = insertvalue { double, double } %.fca.0.insert, double %29, 1
  ret { double, double } %.fca.1.insert
}